target datalayout = "e-m:e-p270:32:32-p271:32:32-p272:64:64-i64:64-i128:128-f80:128-n8:16:32:64-S128"
target triple = "x86_64-unknown-linux-gnu"

%struct.ArchCPU = type { %struct.CPUState, %struct.CPUArchState, ptr, ptr, %struct.RISCVCPUConfig, ptr, i32, ptr, [8 x i8] }
%struct.CPUState = type { %struct.DeviceState, ptr, i32, i32, ptr, i32, i8, i8, ptr, i8, i8, i8, i8, i8, i8, i8, i8, i32, i32, i32, i32, i64, i64, i64, [1 x %struct.__jmp_buf_tag], %struct.QemuMutex, %struct.anon, ptr, i32, ptr, ptr, ptr, ptr, i32, i32, %union.anon, %union.anon.0, %union.anon.1, ptr, ptr, i64, i32, ptr, ptr, ptr, i32, i64, i32, %struct.QemuLockCnt, [1 x i64], ptr, i32, i32, i32, i32, i32, ptr, i8, i8, i64, i8, i8, ptr, [8 x i8], [0 x i8], %struct.CPUNegativeOffsetState }
%struct.DeviceState = type { %struct.Object, ptr, ptr, i8, i8, i64, ptr, i32, i8, ptr, %struct.NamedGPIOListHead, %struct.NamedClockListHead, %struct.BusStateHead, i32, i32, i32, %struct.ResettableState, ptr, %struct.MemReentrancyGuard }
%struct.Object = type { ptr, ptr, ptr, i32, ptr }
%struct.NamedGPIOListHead = type { ptr }
%struct.NamedClockListHead = type { ptr }
%struct.BusStateHead = type { ptr }
%struct.ResettableState = type { i32, i8, i8 }
%struct.MemReentrancyGuard = type { i8 }
%struct.__jmp_buf_tag = type { [8 x i64], i32, %struct.__sigset_t }
%struct.__sigset_t = type { [16 x i64] }
%struct.QemuMutex = type { %union.pthread_mutex_t, i8 }
%union.pthread_mutex_t = type { %struct.__pthread_mutex_s }
%struct.__pthread_mutex_s = type { i32, i32, i32, i32, i32, i16, i16, %struct.__pthread_internal_list }
%struct.__pthread_internal_list = type { ptr, ptr }
%struct.anon = type { ptr, ptr }
%union.anon = type { %struct.QTailQLink }
%struct.QTailQLink = type { ptr, ptr }
%union.anon.0 = type { %struct.QTailQLink }
%union.anon.1 = type { %struct.QTailQLink }
%struct.QemuLockCnt = type { i32 }
%struct.CPUNegativeOffsetState = type { %struct.CPUTLB, %union.IcountDecr, i8, [11 x i8] }
%struct.CPUTLB = type { %struct.CPUTLBCommon, [16 x %struct.CPUTLBDesc], [16 x %struct.CPUTLBDescFast] }
%struct.CPUTLBCommon = type { %struct.QemuSpin, i16, i64, i64, i64 }
%struct.QemuSpin = type { i32 }
%struct.CPUTLBDesc = type { i64, i64, i64, i64, i64, i64, [8 x %union.CPUTLBEntry], [8 x %struct.CPUTLBEntryFull], ptr }
%union.CPUTLBEntry = type { %struct.anon.2 }
%struct.anon.2 = type { i64, i64, i64, i64 }
%struct.CPUTLBEntryFull = type { i64, i64, %struct.MemTxAttrs, i8, i8, [3 x i8], %union.anon.3 }
%struct.MemTxAttrs = type { i32 }
%union.anon.3 = type { %struct.anon.4 }
%struct.anon.4 = type { i8, i8, i8 }
%struct.CPUTLBDescFast = type { i64, ptr }
%union.IcountDecr = type { i32 }
%struct.CPUArchState = type { [32 x i64], [32 x i64], [512 x i64], i64, i64, i64, i64, i64, i8, i64, i64, i64, [32 x i64], i64, %struct.float_status, i64, i64, i64, i64, i64, i64, i32, i32, i32, i32, i32, i64, i64, i64, i8, i64, i64, i64, i64, i64, i8, i8, i64, i64, i64, i64, i64, i64, i64, i64, i64, i64, i64, i64, i64, i64, i64, [64 x i8], [64 x i8], i64, i64, i64, i64, i64, i64, i64, i64, i64, i64, i64, i64, i64, i64, i64, i64, i64, [64 x i8], i64, i64, i64, i64, i64, i64, i64, i64, i64, i64, i64, i64, i64, i64, i64, i64, i64, i64, i64, i8, i8, i64, i64, i64, [32 x %struct.PMUCTRState], [32 x i64], [32 x i64], i64, i64, i64, i64, %struct.pmp_table_t, i64, i64, [2 x i64], [2 x i64], [2 x i64], [2 x ptr], [2 x ptr], [2 x ptr], i64, i8, ptr, ptr, [4 x ptr], [4 x ptr], i8, i64, i64, i64, i64, i64, i64, i64, i64, [4 x i64], [4 x i64], [4 x i64], i64, i64, i64, i64, ptr, ptr, i8, i64, i64, [8 x i8] }
%struct.float_status = type { i16, i8, i8, i8, i8, i8, i8, i8, i8, i8, i8, i8 }
%struct.PMUCTRState = type { i64, i64, i64, i64, i8, i64 }
%struct.pmp_table_t = type { [16 x %struct.pmp_entry_t], [16 x %struct.pmp_addr_t], i32 }
%struct.pmp_entry_t = type { i64, i8 }
%struct.pmp_addr_t = type { i64, i64 }
%struct.RISCVCPUConfig = type { i8, i8, i8, i8, i8, i8, i8, i8, i8, i8, i8, i8, i8, i8, i8, i8, i8, i8, i8, i8, i8, i8, i8, i8, i8, i8, i8, i8, i8, i8, i8, i8, i8, i8, i8, i8, i8, i8, i8, i8, i8, i8, i8, i8, i8, i8, i8, i8, i8, i8, i8, i8, i8, i8, i8, i8, i8, i8, i8, i8, i8, i8, i8, i8, i8, i8, i8, i8, i8, i8, i8, i8, i8, i8, i8, i8, i8, i8, i32, i64, i64, i8, i8, i8, i8, i8, i8, i8, i8, i8, i8, i8, i8, i32, ptr, ptr, ptr, ptr, i16, i16, i16, i16, i8, i8, i8, i8, i8, %struct.RISCVSATPMap }
%struct.RISCVSATPMap = type { i16, i16, i16 }

; Function Attrs: nounwind sspstrong uwtable
define internal zeroext i1 @riscv_pmu_counter_valid(ptr noundef %cpu, i32 noundef %ctr_idx) #0 {
entry:
  %retval = alloca i1, align 1
  %cpu.addr = alloca ptr, align 8
  %ctr_idx.addr = alloca i32, align 4
  store ptr %cpu, ptr %cpu.addr, align 8
  store i32 %ctr_idx, ptr %ctr_idx.addr, align 4
  %0 = load i32, ptr %ctr_idx.addr, align 4
  %cmp = icmp ult i32 %0, 3
  br i1 %cmp, label %if.then, label %lor.lhs.false

lor.lhs.false:                                    ; preds = %entry
  %1 = load i32, ptr %ctr_idx.addr, align 4
  %cmp1 = icmp uge i32 %1, 32
  br i1 %cmp1, label %if.then, label %lor.lhs.false2

lor.lhs.false2:                                   ; preds = %lor.lhs.false
  %2 = load ptr, ptr %cpu.addr, align 8
  %pmu_avail_ctrs = getelementptr inbounds %struct.ArchCPU, ptr %2, i32 0, i32 6
  %3 = load i32, ptr %pmu_avail_ctrs, align 8
  %conv = zext i32 %3 to i64
  %4 = load i32, ptr %ctr_idx.addr, align 4
  %sh_prom = zext i32 %4 to i64
  %shl = shl i64 1, %sh_prom
  %and = and i64 %conv, %shl
  %tobool = icmp ne i64 %and, 0
  br i1 %tobool, label %if.else, label %if.then

if.then:                                          ; preds = %lor.lhs.false2, %lor.lhs.false, %entry
  store i1 false, ptr %retval, align 1
  br label %return

if.else:                                          ; preds = %lor.lhs.false2
  store i1 true, ptr %retval, align 1
  br label %return

return:                                           ; preds = %if.else, %if.then
  %5 = load i1, ptr %retval, align 1
  ret i1 %5
}

; Function Attrs: nounwind sspstrong uwtable
define internal ptr @env_archcpu(ptr noundef %env) #0 {
entry:
  %env.addr = alloca ptr, align 8
  store ptr %env, ptr %env.addr, align 8
  %0 = load ptr, ptr %env.addr, align 8
  %add.ptr = getelementptr i8, ptr %0, i64 -10176
  ret ptr %add.ptr
}

; Function Attrs: nounwind sspstrong uwtable
define dso_local i32 @riscv_pmu_update_event_map(ptr noundef %env, i64 noundef %value, i32 noundef %ctr_idx) #0 {
entry:
  %retval = alloca i32, align 4
  %env.addr = alloca ptr, align 8
  %value.addr = alloca i64, align 8
  %ctr_idx.addr = alloca i32, align 4
  %event_idx = alloca i32, align 4
  %cpu = alloca ptr, align 8
  store ptr %env, ptr %env.addr, align 8
  store i64 %value, ptr %value.addr, align 8
  store i32 %ctr_idx, ptr %ctr_idx.addr, align 4
  %0 = load ptr, ptr %env.addr, align 8
  %call = call ptr @env_archcpu(ptr noundef %0)
  store ptr %call, ptr %cpu, align 8
  %1 = load ptr, ptr %cpu, align 8
  %2 = load i32, ptr %ctr_idx.addr, align 4
  %call1 = call zeroext i1 @riscv_pmu_counter_valid(ptr noundef %1, i32 noundef %2)
  br i1 %call1, label %lor.lhs.false, label %if.then

lor.lhs.false:                                    ; preds = %entry
  %3 = load ptr, ptr %cpu, align 8
  %pmu_event_ctr_map = getelementptr inbounds %struct.ArchCPU, ptr %3, i32 0, i32 7
  %4 = load ptr, ptr %pmu_event_ctr_map, align 16
  %tobool = icmp ne ptr %4, null
  br i1 %tobool, label %if.end, label %if.then

if.then:                                          ; preds = %lor.lhs.false, %entry
  store i32 -1, ptr %retval, align 4
  br label %return

if.end:                                           ; preds = %lor.lhs.false
  %5 = load i64, ptr %value.addr, align 8
  %tobool2 = icmp ne i64 %5, 0
  br i1 %tobool2, label %if.end6, label %if.then3

if.then3:                                         ; preds = %if.end
  %6 = load ptr, ptr %cpu, align 8
  %pmu_event_ctr_map4 = getelementptr inbounds %struct.ArchCPU, ptr %6, i32 0, i32 7
  %7 = load ptr, ptr %pmu_event_ctr_map4, align 16
  %8 = load i32, ptr %ctr_idx.addr, align 4
  %conv = zext i32 %8 to i64
  %9 = inttoptr i64 %conv to ptr
  %call5 = call i32 @g_hash_table_foreach_remove(ptr noundef %7, ptr noundef @pmu_remove_event_map, ptr noundef %9)
  store i32 0, ptr %retval, align 4
  br label %return

if.end6:                                          ; preds = %if.end
  %10 = load i64, ptr %value.addr, align 8
  %and = and i64 %10, 1048575
  %conv7 = trunc i64 %and to i32
  store i32 %conv7, ptr %event_idx, align 4
  %11 = load ptr, ptr %cpu, align 8
  %pmu_event_ctr_map8 = getelementptr inbounds %struct.ArchCPU, ptr %11, i32 0, i32 7
  %12 = load ptr, ptr %pmu_event_ctr_map8, align 16
  %13 = load i32, ptr %event_idx, align 4
  %conv9 = zext i32 %13 to i64
  %14 = inttoptr i64 %conv9 to ptr
  %call10 = call ptr @g_hash_table_lookup(ptr noundef %12, ptr noundef %14)
  %tobool11 = icmp ne ptr %call10, null
  br i1 %tobool11, label %if.then12, label %if.end13

if.then12:                                        ; preds = %if.end6
  store i32 0, ptr %retval, align 4
  br label %return

if.end13:                                         ; preds = %if.end6
  %15 = load i32, ptr %event_idx, align 4
  switch i32 %15, label %sw.default [
    i32 1, label %sw.bb
    i32 2, label %sw.bb
    i32 65561, label %sw.bb
    i32 65563, label %sw.bb
    i32 65569, label %sw.bb
  ]

sw.bb:                                            ; preds = %if.end13, %if.end13, %if.end13, %if.end13, %if.end13
  br label %sw.epilog

sw.default:                                       ; preds = %if.end13
  store i32 -1, ptr %retval, align 4
  br label %return

sw.epilog:                                        ; preds = %sw.bb
  %16 = load ptr, ptr %cpu, align 8
  %pmu_event_ctr_map14 = getelementptr inbounds %struct.ArchCPU, ptr %16, i32 0, i32 7
  %17 = load ptr, ptr %pmu_event_ctr_map14, align 16
  %18 = load i32, ptr %event_idx, align 4
  %conv15 = zext i32 %18 to i64
  %19 = inttoptr i64 %conv15 to ptr
  %20 = load i32, ptr %ctr_idx.addr, align 4
  %conv16 = zext i32 %20 to i64
  %21 = inttoptr i64 %conv16 to ptr
  %call17 = call i32 @g_hash_table_insert(ptr noundef %17, ptr noundef %19, ptr noundef %21)
  store i32 0, ptr %retval, align 4
  br label %return

return:                                           ; preds = %sw.epilog, %sw.default, %if.then12, %if.then3, %if.then
  %22 = load i32, ptr %retval, align 4
  ret i32 %22
}