; Function Attrs: nounwind sspstrong uwtable
define dso_local range(i32 -1, 1) i32 @riscv_pmu_update_event_map(ptr noundef readonly captures(none) %env, i64 noundef %value, i32 noundef %ctr_idx) local_unnamed_addr #0 {
entry:
  %0 = add i32 %ctr_idx, -32
  %or.cond.i = icmp ult i32 %0, -29
  br i1 %or.cond.i, label %return, label %riscv_pmu_counter_valid.exit

riscv_pmu_counter_valid.exit:                     ; preds = %entry
  %pmu_avail_ctrs.i = getelementptr i8, ptr %env, i64 9000
  %1 = load i32, ptr %pmu_avail_ctrs.i, align 8
  %conv.i = zext i32 %1 to i64
  %sh_prom.i = zext nneg i32 %ctr_idx to i64
  %shl.i = shl nuw nsw i64 1, %sh_prom.i
  %and.i = and i64 %shl.i, %conv.i
  %tobool.not.i.not = icmp eq i64 %and.i, 0
  br i1 %tobool.not.i.not, label %return, label %lor.lhs.false

lor.lhs.false:                                    ; preds = %riscv_pmu_counter_valid.exit
  %pmu_event_ctr_map = getelementptr i8, ptr %env, i64 9008
  %2 = load ptr, ptr %pmu_event_ctr_map, align 16
  %tobool.not = icmp eq ptr %2, null
  br i1 %tobool.not, label %return, label %if.end

if.end:                                           ; preds = %lor.lhs.false
  %tobool2.not = icmp eq i64 %value, 0
  br i1 %tobool2.not, label %if.then3, label %if.end6

if.then3:                                         ; preds = %if.end
  %3 = inttoptr i64 %sh_prom.i to ptr
  %call5 = tail call i32 @g_hash_table_foreach_remove(ptr noundef nonnull %2, ptr noundef nonnull @pmu_remove_event_map, ptr noundef %3) #6
  br label %return

if.end6:                                          ; preds = %if.end
  %conv9 = and i64 %value, 1048575
  %4 = inttoptr i64 %conv9 to ptr
  %call10 = tail call ptr @g_hash_table_lookup(ptr noundef nonnull %2, ptr noundef %4) #6
  %tobool11.not = icmp eq ptr %call10, null
  br i1 %tobool11.not, label %if.end13, label %return

if.end13:                                         ; preds = %if.end6
  %5 = trunc i64 %value to i32
  %conv7 = and i32 %5, 1048575
  switch i32 %conv7, label %return [
    i32 1, label %sw.epilog
    i32 2, label %sw.epilog
    i32 65561, label %sw.epilog
    i32 65563, label %sw.epilog
    i32 65569, label %sw.epilog
  ]

sw.epilog:                                        ; preds = %if.end13, %if.end13, %if.end13, %if.end13, %if.end13
  %6 = load ptr, ptr %pmu_event_ctr_map, align 16
  %7 = inttoptr i64 %sh_prom.i to ptr
  %call17 = tail call i32 @g_hash_table_insert(ptr noundef %6, ptr noundef %4, ptr noundef %7) #6
  br label %return

return:                                           ; preds = %entry, %if.end13, %if.end6, %riscv_pmu_counter_valid.exit, %lor.lhs.false, %sw.epilog, %if.then3
  %retval.0 = phi i32 [ 0, %sw.epilog ], [ 0, %if.then3 ], [ -1, %lor.lhs.false ], [ -1, %riscv_pmu_counter_valid.exit ], [ 0, %if.end6 ], [ -1, %if.end13 ], [ -1, %entry ]
  ret i32 %retval.0
}